#include <math.h>
#include <stdio.h>
#include <stdlib.h>
#include <string.h>


int main(int argc, char* argv[])
{
	int m;
	scanf("%d",&m);
	int geshu[1000];
	for(int k=0;k<m;k++)
	{
		scanf("%d",&(geshu[k]));
	}
	double sz[1000];
	double sum=0;
	double a=1,b=2,e;
	for(int i=0;i<m;i++)
	{
		for(int j=0;j<geshu[i];j++)
		{
			sz[j]=1.0*b/a;
			sum+=sz[j];	
			e=b;
			b=a+b;
			a=e;
		
		}
			printf("%.3lf\n",sum);
			sum=0;
			b=2;
			a=1;
	}

	return 0;
}