; ModuleID = '29/991.c'
source_filename = "29/991.c"
target datalayout = "e-m:e-p270:32:32-p271:32:32-p272:64:64-i64:64-f80:128-n8:16:32:64-S128"
target triple = "x86_64-pc-linux-gnu"

@.str = private unnamed_addr constant [3 x i8] c"%d\00", align 1
@.str.1 = private unnamed_addr constant [7 x i8] c"%.3lf\0A\00", align 1

; Function Attrs: noinline nounwind uwtable
define dso_local i32 @main(i32 %0, i8** %1) #0 {
  %3 = alloca i32, align 4
  %4 = alloca i32, align 4
  %5 = alloca i8**, align 8
  %6 = alloca i32, align 4
  %7 = alloca [1000 x i32], align 16
  %8 = alloca i32, align 4
  %9 = alloca [1000 x double], align 16
  %10 = alloca double, align 8
  %11 = alloca double, align 8
  %12 = alloca double, align 8
  %13 = alloca double, align 8
  %14 = alloca i32, align 4
  %15 = alloca i32, align 4
  store i32 0, i32* %3, align 4
  store i32 %0, i32* %4, align 4
  store i8** %1, i8*** %5, align 8
  %16 = call i32 (i8*, ...) @__isoc99_scanf(i8* getelementptr inbounds ([3 x i8], [3 x i8]* @.str, i64 0, i64 0), i32* %6)
  store i32 0, i32* %8, align 4
  br label %17

17:                                               ; preds = %26, %2
  %18 = load i32, i32* %8, align 4
  %19 = load i32, i32* %6, align 4
  %20 = icmp slt i32 %18, %19
  br i1 %20, label %21, label %29

21:                                               ; preds = %17
  %22 = load i32, i32* %8, align 4
  %23 = sext i32 %22 to i64
  %24 = getelementptr inbounds [1000 x i32], [1000 x i32]* %7, i64 0, i64 %23
  %25 = call i32 (i8*, ...) @__isoc99_scanf(i8* getelementptr inbounds ([3 x i8], [3 x i8]* @.str, i64 0, i64 0), i32* %24)
  br label %26

26:                                               ; preds = %21
  %27 = load i32, i32* %8, align 4
  %28 = add nsw i32 %27, 1
  store i32 %28, i32* %8, align 4
  br label %17

29:                                               ; preds = %17
  store double 0.000000e+00, double* %10, align 8
  store double 1.000000e+00, double* %11, align 8
  store double 2.000000e+00, double* %12, align 8
  store i32 0, i32* %14, align 4
  br label %30

30:                                               ; preds = %67, %29
  %31 = load i32, i32* %14, align 4
  %32 = load i32, i32* %6, align 4
  %33 = icmp slt i32 %31, %32
  br i1 %33, label %34, label %70

34:                                               ; preds = %30
  store i32 0, i32* %15, align 4
  br label %35

35:                                               ; preds = %61, %34
  %36 = load i32, i32* %15, align 4
  %37 = load i32, i32* %14, align 4
  %38 = sext i32 %37 to i64
  %39 = getelementptr inbounds [1000 x i32], [1000 x i32]* %7, i64 0, i64 %38
  %40 = load i32, i32* %39, align 4
  %41 = icmp slt i32 %36, %40
  br i1 %41, label %42, label %64

42:                                               ; preds = %35
  %43 = load double, double* %12, align 8
  %44 = fmul double 1.000000e+00, %43
  %45 = load double, double* %11, align 8
  %46 = fdiv double %44, %45
  %47 = load i32, i32* %15, align 4
  %48 = sext i32 %47 to i64
  %49 = getelementptr inbounds [1000 x double], [1000 x double]* %9, i64 0, i64 %48
  store double %46, double* %49, align 8
  %50 = load i32, i32* %15, align 4
  %51 = sext i32 %50 to i64
  %52 = getelementptr inbounds [1000 x double], [1000 x double]* %9, i64 0, i64 %51
  %53 = load double, double* %52, align 8
  %54 = load double, double* %10, align 8
  %55 = fadd double %54, %53
  store double %55, double* %10, align 8
  %56 = load double, double* %12, align 8
  store double %56, double* %13, align 8
  %57 = load double, double* %11, align 8
  %58 = load double, double* %12, align 8
  %59 = fadd double %57, %58
  store double %59, double* %12, align 8
  %60 = load double, double* %13, align 8
  store double %60, double* %11, align 8
  br label %61

61:                                               ; preds = %42
  %62 = load i32, i32* %15, align 4
  %63 = add nsw i32 %62, 1
  store i32 %63, i32* %15, align 4
  br label %35

64:                                               ; preds = %35
  %65 = load double, double* %10, align 8
  %66 = call i32 (i8*, ...) @printf(i8* getelementptr inbounds ([7 x i8], [7 x i8]* @.str.1, i64 0, i64 0), double %65)
  store double 0.000000e+00, double* %10, align 8
  store double 2.000000e+00, double* %12, align 8
  store double 1.000000e+00, double* %11, align 8
  br label %67

67:                                               ; preds = %64
  %68 = load i32, i32* %14, align 4
  %69 = add nsw i32 %68, 1
  store i32 %69, i32* %14, align 4
  br label %30

70:                                               ; preds = %30
  ret i32 0
}

declare dso_local i32 @__isoc99_scanf(i8*, ...) #1

declare dso_local i32 @printf(i8*, ...) #1


!llvm.module.flags = !{!0}
!llvm.ident = !{!1}

!0 = !{i32 1, !"wchar_size", i32 4}
!1 = !{!"clang version 10.0.0-4ubuntu1 "}
